target datalayout = "e-m:e-p270:32:32-p271:32:32-p272:64:64-i64:64-i128:128-f80:128-n8:16:32:64-S128"
target triple = "x86_64-pc-linux-gnu"

%struct.SDL_FPoint = type { float, float }
%struct.SDL_FColor = type { float, float, float, float }
%struct.SDL_RenderCommand = type { i32, %union.anon, ptr }
%union.anon = type { %struct.anon.1 }
%struct.anon.1 = type { i64, i64, float, %struct.SDL_FColor, i32, ptr, i32, i32, i32, ptr }

; Function Attrs: nounwind uwtable
define internal zeroext i1 @GL_QueueDrawPoints(ptr noundef %0, ptr noundef %1, ptr noundef %2, i32 noundef %3) #0 {
  %5 = alloca i1, align 1
  %6 = alloca ptr, align 8
  %7 = alloca ptr, align 8
  %8 = alloca ptr, align 8
  %9 = alloca i32, align 4
  %10 = alloca ptr, align 8
  %11 = alloca i32, align 4
  %12 = alloca i32, align 4
  store ptr %0, ptr %6, align 8
  store ptr %1, ptr %7, align 8
  store ptr %2, ptr %8, align 8
  store i32 %3, ptr %9, align 4
  call void @llvm.lifetime.start.p0(i64 8, ptr %10) #4
  %13 = load ptr, ptr %6, align 8
  %14 = load i32, ptr %9, align 4
  %15 = mul nsw i32 %14, 2
  %16 = sext i32 %15 to i64
  %17 = mul i64 %16, 4
  %18 = load ptr, ptr %7, align 8
  %19 = getelementptr inbounds nuw %struct.SDL_RenderCommand, ptr %18, i32 0, i32 1
  %20 = getelementptr inbounds nuw %struct.anon.1, ptr %19, i32 0, i32 0
  %21 = call ptr @SDL_AllocateRenderVertices(ptr noundef %13, i64 noundef %17, i64 noundef 0, ptr noundef %20)
  store ptr %21, ptr %10, align 8
  call void @llvm.lifetime.start.p0(i64 4, ptr %11) #4
  %22 = load ptr, ptr %10, align 8
  %23 = icmp ne ptr %22, null
  br i1 %23, label %25, label %24

24:                                               ; preds = %4
  store i1 false, ptr %5, align 1
  store i32 1, ptr %12, align 4
  br label %58

25:                                               ; preds = %4
  %26 = load i32, ptr %9, align 4
  %27 = sext i32 %26 to i64
  %28 = load ptr, ptr %7, align 8
  %29 = getelementptr inbounds nuw %struct.SDL_RenderCommand, ptr %28, i32 0, i32 1
  %30 = getelementptr inbounds nuw %struct.anon.1, ptr %29, i32 0, i32 1
  store i64 %27, ptr %30, align 8
  store i32 0, ptr %11, align 4
  br label %31

31:                                               ; preds = %54, %25
  %32 = load i32, ptr %11, align 4
  %33 = load i32, ptr %9, align 4
  %34 = icmp slt i32 %32, %33
  br i1 %34, label %35, label %57

35:                                               ; preds = %31
  %36 = load ptr, ptr %8, align 8
  %37 = load i32, ptr %11, align 4
  %38 = sext i32 %37 to i64
  %39 = getelementptr inbounds %struct.SDL_FPoint, ptr %36, i64 %38
  %40 = getelementptr inbounds nuw %struct.SDL_FPoint, ptr %39, i32 0, i32 0
  %41 = load float, ptr %40, align 4
  %42 = fadd float 5.000000e-01, %41
  %43 = load ptr, ptr %10, align 8
  %44 = getelementptr inbounds nuw float, ptr %43, i32 1
  store ptr %44, ptr %10, align 8
  store float %42, ptr %43, align 4
  %45 = load ptr, ptr %8, align 8
  %46 = load i32, ptr %11, align 4
  %47 = sext i32 %46 to i64
  %48 = getelementptr inbounds %struct.SDL_FPoint, ptr %45, i64 %47
  %49 = getelementptr inbounds nuw %struct.SDL_FPoint, ptr %48, i32 0, i32 1
  %50 = load float, ptr %49, align 4
  %51 = fadd float 5.000000e-01, %50
  %52 = load ptr, ptr %10, align 8
  %53 = getelementptr inbounds nuw float, ptr %52, i32 1
  store ptr %53, ptr %10, align 8
  store float %51, ptr %52, align 4
  br label %54

54:                                               ; preds = %35
  %55 = load i32, ptr %11, align 4
  %56 = add nsw i32 %55, 1
  store i32 %56, ptr %11, align 4
  br label %31, !llvm.loop !7

57:                                               ; preds = %31
  store i1 true, ptr %5, align 1
  store i32 1, ptr %12, align 4
  br label %58

58:                                               ; preds = %57, %24
  call void @llvm.lifetime.end.p0(i64 4, ptr %11) #4
  call void @llvm.lifetime.end.p0(i64 8, ptr %10) #4
  %59 = load i1, ptr %5, align 1
  ret i1 %59
}